; Function Attrs: mustprogress nofree norecurse nosync nounwind willreturn memory(readwrite, inaccessiblemem: none) uwtable
define void @Saig_SynchSetConstant1(ptr noundef readonly captures(none) %0, ptr noundef readonly captures(none) %1, i32 noundef %2) local_unnamed_addr #0 {
  %4 = icmp sgt i32 %2, 0
  br i1 %4, label %.lr.ph.preheader, label %._crit_edge

.lr.ph.preheader:                                 ; preds = %3
  %5 = getelementptr i8, ptr %1, i64 8
  %.val7 = load ptr, ptr %5, align 8, !tbaa !3
  %6 = getelementptr i8, ptr %0, i64 48
  %.val = load ptr, ptr %6, align 8, !tbaa !9
  %7 = getelementptr inbounds nuw i8, ptr %.val, i64 36
  %8 = load i32, ptr %7, align 4, !tbaa !23
  %9 = sext i32 %8 to i64
  %10 = getelementptr inbounds ptr, ptr %.val7, i64 %9
  %11 = load ptr, ptr %10, align 8, !tbaa !24
  %12 = zext nneg i32 %2 to i64
  %13 = shl nuw nsw i64 %12, 2
  tail call void @llvm.memset.p0.i64(ptr align 4 %11, i8 85, i64 %13, i1 false), !tbaa !25
  br label %._crit_edge

._crit_edge:                                      ; preds = %.lr.ph.preheader, %3
  ret void
}